; Function Attrs: nounwind uwtable
define ptr @l_Lean_Environment_findTask___boxed(ptr noundef %0, ptr noundef %1, ptr noundef %2) local_unnamed_addr #1 {
  %4 = ptrtoint ptr %2 to i64
  %5 = and i64 %4, 1
  %.not = icmp eq i64 %5, 0
  br i1 %.not, label %6, label %lean_dec.exit

6:                                                ; preds = %3
  %7 = load i32, ptr %2, align 4, !tbaa !4
  %8 = icmp sgt i32 %7, 1
  br i1 %8, label %9, label %11, !prof !11

9:                                                ; preds = %6
  %10 = add nsw i32 %7, -1
  store i32 %10, ptr %2, align 4, !tbaa !4
  br label %lean_dec.exit

11:                                               ; preds = %6
  %.not.i = icmp eq i32 %7, 0
  br i1 %.not.i, label %lean_dec.exit, label %12

12:                                               ; preds = %11
  tail call void @lean_dec_ref_cold(ptr noundef nonnull %2) #10
  br label %lean_dec.exit

lean_dec.exit:                                    ; preds = %12, %11, %9, %3
  %13 = lshr i64 %4, 1
  %14 = trunc i64 %13 to i8
  %15 = tail call ptr @l_Lean_Environment_findTask(ptr noundef %0, ptr noundef %1, i8 noundef zeroext %14)
  ret ptr %15
}